target datalayout = "e-m:e-p270:32:32-p271:32:32-p272:64:64-i64:64-i128:128-f80:128-n8:16:32:64-S128"
target triple = "x86_64-pc-linux-gnu"

%struct.expert_field = type { i32, i32 }
%struct.ansi_a_shared_data_t = type { ptr, ptr, ptr, i8, i8, %struct._address, i32, %struct.e_in6_addr, i16, i8 }
%struct._address = type { i32, i32, ptr, ptr }
%struct.e_in6_addr = type { [16 x i8] }
%struct.ext_value_string_t = type { i32, ptr, i32 }

@ansi_a_elem_1_max = internal global i32 0, align 4
@ansi_a_elem_1_strings = global ptr null, align 8
@.str.282 = private unnamed_addr constant [1 x i8] zeroinitializer, align 1
@hf_ansi_a_length = internal global i32 0, align 4
@ei_ansi_a_no_lv_elem_diss = internal global %struct.expert_field zeroinitializer, align 4
@ett_ansi_elem_1 = internal global [92 x i32] zeroinitializer, align 16
@.str.1003 = private unnamed_addr constant [5 x i8] c"%s%s\00", align 1
@.str.1004 = private unnamed_addr constant [14 x i8] c"Element Value\00", align 1

; Function Attrs: null_pointer_is_valid sspstrong uwtable
define internal zeroext i16 @elem_lv(ptr noundef %0, ptr noundef %1, ptr noundef %2, i32 noundef %3, i32 noundef %4, i32 noundef %5, ptr noundef %6, ptr noundef %7) #1 {
  %9 = alloca i16, align 2
  %10 = alloca ptr, align 8
  %11 = alloca ptr, align 8
  %12 = alloca ptr, align 8
  %13 = alloca i32, align 4
  %14 = alloca i32, align 4
  %15 = alloca i32, align 4
  %16 = alloca ptr, align 8
  %17 = alloca ptr, align 8
  %18 = alloca i8, align 1
  %19 = alloca i16, align 2
  %20 = alloca i32, align 4
  %21 = alloca ptr, align 8
  %22 = alloca i32, align 4
  %23 = alloca i32, align 4
  store ptr %0, ptr %10, align 8
  store ptr %1, ptr %11, align 8
  store ptr %2, ptr %12, align 8
  store i32 %3, ptr %13, align 4
  store i32 %4, ptr %14, align 4
  store i32 %5, ptr %15, align 4
  store ptr %6, ptr %16, align 8
  store ptr %7, ptr %17, align 8
  call void @llvm.lifetime.start.p0(i64 1, ptr %18) #8
  call void @llvm.lifetime.start.p0(i64 2, ptr %19) #8
  call void @llvm.lifetime.start.p0(i64 4, ptr %20) #8
  call void @llvm.lifetime.start.p0(i64 8, ptr %21) #8
  call void @llvm.lifetime.start.p0(i64 4, ptr %22) #8
  %24 = load i32, ptr %14, align 4
  store i32 %24, ptr %20, align 4
  store i16 0, ptr %19, align 2
  %25 = load i32, ptr %13, align 4
  %26 = icmp slt i32 %25, 0
  br i1 %26, label %32, label %27

27:                                               ; preds = %8
  %28 = load i32, ptr %13, align 4
  %29 = load i32, ptr @ansi_a_elem_1_max, align 4
  %30 = sub i32 %29, 1
  %31 = icmp uge i32 %28, %30
  br i1 %31, label %32, label %37

32:                                               ; preds = %27, %8
  %33 = load ptr, ptr %10, align 8
  %34 = load i32, ptr %14, align 4
  %35 = call i32 @tvb_reported_length_remaining(ptr noundef %33, i32 noundef %34)
  %36 = trunc i32 %35 to i16
  store i16 %36, ptr %9, align 2
  store i32 1, ptr %23, align 4
  br label %127

37:                                               ; preds = %27
  %38 = load ptr, ptr @ansi_a_elem_1_strings, align 8
  %39 = load i32, ptr %13, align 4
  %40 = zext i32 %39 to i64
  %41 = getelementptr %struct.ext_value_string_t, ptr %38, i64 %40
  %42 = getelementptr inbounds nuw %struct.ext_value_string_t, ptr %41, i32 0, i32 2
  %43 = load i32, ptr %42, align 8
  store i32 %43, ptr %22, align 4
  %44 = load ptr, ptr %10, align 8
  %45 = load i32, ptr %20, align 4
  %46 = call zeroext i8 @tvb_get_uint8(ptr noundef %44, i32 noundef %45)
  store i8 %46, ptr %18, align 1
  %47 = load ptr, ptr %12, align 8
  %48 = load ptr, ptr %10, align 8
  %49 = load i32, ptr %20, align 4
  %50 = load i8, ptr %18, align 1
  %51 = zext i8 %50 to i32
  %52 = add i32 %51, 1
  %53 = load i32, ptr %13, align 4
  %54 = zext i32 %53 to i64
  %55 = getelementptr [92 x i32], ptr @ett_ansi_elem_1, i64 0, i64 %54
  %56 = load i32, ptr %55, align 4
  %57 = load ptr, ptr %17, align 8
  %58 = getelementptr inbounds nuw %struct.ansi_a_shared_data_t, ptr %57, i32 0, i32 2
  %59 = load ptr, ptr @ansi_a_elem_1_strings, align 8
  %60 = load i32, ptr %13, align 4
  %61 = zext i32 %60 to i64
  %62 = getelementptr %struct.ext_value_string_t, ptr %59, i64 %61
  %63 = getelementptr inbounds nuw %struct.ext_value_string_t, ptr %62, i32 0, i32 1
  %64 = load ptr, ptr %63, align 8
  %65 = load ptr, ptr %16, align 8
  %66 = icmp eq ptr %65, null
  br i1 %66, label %73, label %67

67:                                               ; preds = %37
  %68 = load ptr, ptr %16, align 8
  %69 = getelementptr i8, ptr %68, i64 0
  %70 = load i8, ptr %69, align 1
  %71 = sext i8 %70 to i32
  %72 = icmp eq i32 %71, 0
  br i1 %72, label %73, label %74

73:                                               ; preds = %67, %37
  br label %76

74:                                               ; preds = %67
  %75 = load ptr, ptr %16, align 8
  br label %76

76:                                               ; preds = %74, %73
  %77 = phi ptr [ @.str.282, %73 ], [ %75, %74 ]
  %78 = call ptr (ptr, ptr, i32, i32, i32, ptr, ptr, ...) @proto_tree_add_subtree_format(ptr noundef %47, ptr noundef %48, i32 noundef %49, i32 noundef %52, i32 noundef %56, ptr noundef %58, ptr noundef @.str.1003, ptr noundef %64, ptr noundef %77)
  store ptr %78, ptr %21, align 8
  %79 = load ptr, ptr %21, align 8
  %80 = load i32, ptr @hf_ansi_a_length, align 4
  %81 = load ptr, ptr %10, align 8
  %82 = load i32, ptr %20, align 4
  %83 = load i8, ptr %18, align 1
  %84 = zext i8 %83 to i32
  %85 = call ptr @proto_tree_add_uint(ptr noundef %79, i32 noundef %80, ptr noundef %81, i32 noundef %82, i32 noundef 1, i32 noundef %84)
  %86 = load i8, ptr %18, align 1
  %87 = zext i8 %86 to i32
  %88 = icmp sgt i32 %87, 0
  br i1 %88, label %89, label %122

89:                                               ; preds = %76
  %90 = load i32, ptr %22, align 4
  %91 = sext i32 %90 to i64
  %92 = getelementptr [92 x ptr], ptr @elem_1_fcn, i64 0, i64 %91
  %93 = load ptr, ptr %92, align 8
  %94 = icmp eq ptr %93, null
  br i1 %94, label %95, label %106

95:                                               ; preds = %89
  %96 = load ptr, ptr %21, align 8
  %97 = load ptr, ptr %11, align 8
  %98 = load ptr, ptr %10, align 8
  %99 = load i32, ptr %20, align 4
  %100 = add i32 %99, 1
  %101 = load i8, ptr %18, align 1
  %102 = zext i8 %101 to i32
  %103 = call ptr (ptr, ptr, ptr, ptr, i32, i32, ptr, ...) @proto_tree_add_expert_format(ptr noundef %96, ptr noundef %97, ptr noundef @ei_ansi_a_no_lv_elem_diss, ptr noundef %98, i32 noundef %100, i32 noundef %102, ptr noundef @.str.1004)
  %104 = load i8, ptr %18, align 1
  %105 = zext i8 %104 to i16
  store i16 %105, ptr %19, align 2
  br label %121

106:                                              ; preds = %89
  %107 = load i32, ptr %22, align 4
  %108 = sext i32 %107 to i64
  %109 = getelementptr [92 x ptr], ptr @elem_1_fcn, i64 0, i64 %108
  %110 = load ptr, ptr %109, align 8
  %111 = load ptr, ptr %10, align 8
  %112 = load ptr, ptr %11, align 8
  %113 = load ptr, ptr %21, align 8
  %114 = load i32, ptr %20, align 4
  %115 = add i32 %114, 1
  %116 = load i8, ptr %18, align 1
  %117 = zext i8 %116 to i32
  %118 = load ptr, ptr %17, align 8
  %119 = call zeroext i8 %110(ptr noundef %111, ptr noundef %112, ptr noundef %113, i32 noundef %115, i32 noundef %117, ptr noundef %118)
  %120 = zext i8 %119 to i16
  store i16 %120, ptr %19, align 2
  br label %121

121:                                              ; preds = %106, %95
  br label %122

122:                                              ; preds = %121, %76
  %123 = load i16, ptr %19, align 2
  %124 = zext i16 %123 to i32
  %125 = add i32 %124, 1
  %126 = trunc i32 %125 to i16
  store i16 %126, ptr %9, align 2
  store i32 1, ptr %23, align 4
  br label %127

127:                                              ; preds = %122, %32
  call void @llvm.lifetime.end.p0(i64 4, ptr %22) #8
  call void @llvm.lifetime.end.p0(i64 8, ptr %21) #8
  call void @llvm.lifetime.end.p0(i64 4, ptr %20) #8
  call void @llvm.lifetime.end.p0(i64 2, ptr %19) #8
  call void @llvm.lifetime.end.p0(i64 1, ptr %18) #8
  %128 = load i16, ptr %9, align 2
  ret i16 %128
}