; Function Attrs: null_pointer_is_valid sspstrong uwtable
define internal fastcc zeroext i16 @elem_lv(ptr noundef %0, ptr noundef %1, ptr noundef %2, i32 noundef range(i32 1, 86) %3, i32 noundef %4, ptr noundef %5) unnamed_addr #1 {
  %7 = load i32, ptr @ansi_a_elem_1_max, align 4
  %8 = add nsw i32 %7, -1
  %.not = icmp ult i32 %3, %8
  br i1 %.not, label %12, label %9

9:                                                ; preds = %6
  %10 = tail call i32 @tvb_reported_length_remaining(ptr noundef %0, i32 noundef %4)
  %11 = trunc i32 %10 to i16
  br label %42

12:                                               ; preds = %6
  %13 = load ptr, ptr @ansi_a_elem_1_strings, align 8
  %14 = zext nneg i32 %3 to i64
  %15 = getelementptr %struct.ext_value_string_t, ptr %13, i64 %14, i32 2
  %16 = load i32, ptr %15, align 8
  %17 = tail call zeroext i8 @tvb_get_uint8(ptr noundef %0, i32 noundef %4)
  %18 = zext i8 %17 to i32
  %19 = add nuw nsw i32 %18, 1
  %20 = getelementptr [92 x i32], ptr @ett_ansi_elem_1, i64 0, i64 %14
  %21 = load i32, ptr %20, align 4
  %22 = getelementptr inbounds nuw i8, ptr %5, i64 16
  %23 = load ptr, ptr @ansi_a_elem_1_strings, align 8
  %24 = getelementptr %struct.ext_value_string_t, ptr %23, i64 %14, i32 1
  %25 = load ptr, ptr %24, align 8
  %26 = tail call ptr (ptr, ptr, i32, i32, i32, ptr, ptr, ...) @proto_tree_add_subtree_format(ptr noundef %2, ptr noundef %0, i32 noundef %4, i32 noundef %19, i32 noundef %21, ptr noundef nonnull %22, ptr noundef nonnull @.str.1003, ptr noundef %25, ptr noundef nonnull @.str.282)
  %27 = load i32, ptr @hf_ansi_a_length, align 4
  %28 = tail call ptr @proto_tree_add_uint(ptr noundef %26, i32 noundef %27, ptr noundef %0, i32 noundef %4, i32 noundef 1, i32 noundef %18)
  %.not43 = icmp eq i8 %17, 0
  br i1 %.not43, label %39, label %29

29:                                               ; preds = %12
  %30 = sext i32 %16 to i64
  %31 = getelementptr [92 x ptr], ptr @elem_1_fcn, i64 0, i64 %30
  %32 = load ptr, ptr %31, align 8
  %33 = icmp eq ptr %32, null
  %34 = add i32 %4, 1
  br i1 %33, label %35, label %37

35:                                               ; preds = %29
  %36 = tail call ptr (ptr, ptr, ptr, ptr, i32, i32, ptr, ...) @proto_tree_add_expert_format(ptr noundef %26, ptr noundef %1, ptr noundef nonnull @ei_ansi_a_no_lv_elem_diss, ptr noundef %0, i32 noundef %34, i32 noundef %18, ptr noundef nonnull @.str.1004)
  br label %39

37:                                               ; preds = %29
  %38 = tail call zeroext i8 %32(ptr noundef %0, ptr noundef %1, ptr noundef %26, i32 noundef %34, i32 noundef %18, ptr noundef %5)
  br label %39

39:                                               ; preds = %35, %37, %12
  %.038.shrunk = phi i8 [ %17, %35 ], [ %38, %37 ], [ 0, %12 ]
  %40 = zext i8 %.038.shrunk to i16
  %41 = add nuw nsw i16 %40, 1
  br label %42

42:                                               ; preds = %39, %9
  %.0 = phi i16 [ %11, %9 ], [ %41, %39 ]
  ret i16 %.0
}